target datalayout = "e-m:e-p270:32:32-p271:32:32-p272:64:64-i64:64-i128:128-f80:128-n8:16:32:64-S128"
target triple = "x86_64-pc-linux-gnu"

%struct.AVCodecContext = type { ptr, i32, i32, ptr, i32, i32, ptr, ptr, ptr, i64, i32, i32, ptr, i32, %struct.AVRational, %struct.AVRational, %struct.AVRational, i32, i32, i32, i32, i32, %struct.AVRational, i32, i32, i32, i32, i32, i32, i32, i32, i32, i32, i32, ptr, ptr, i32, float, float, float, float, float, float, float, float, float, i32, i32, i32, i32, i32, i32, i32, i32, i32, i32, i32, i32, ptr, ptr, ptr, i32, i32, i32, i32, i32, i32, i32, i32, i32, i32, %struct.AVChannelLayout, i32, i32, i32, i32, i32, i32, i32, i32, ptr, i32, i32, i32, float, float, i32, i32, i32, i32, i32, ptr, i64, i64, float, float, i32, i32, ptr, ptr, i32, i32, i32, i32, i32, ptr, ptr, ptr, ptr, i32, i32, [8 x i64], i32, i32, i32, i32, i32, i32, i32, ptr, ptr, i32, i32, i32, i32, i32, i32, i32, i32, i32, i32, ptr, ptr, i32, i32, ptr, ptr, ptr, ptr, i32, i32, i64, i32, i32, i64, ptr, i64, ptr, i32, ptr, i32 }
%struct.AVRational = type { i32, i32 }
%struct.AVChannelLayout = type { i32, i32, %union.anon.0, ptr }
%union.anon.0 = type { i64 }
%struct.G2MContext = type { %struct.ePICContext, %struct.JPGContext, i32, i32, i32, i32, i32, i32, i32, i32, i32, i32, i32, i32, i32, i32, ptr, i32, i32, ptr, ptr, ptr, ptr, i32, i32, i32, i32, i32, ptr, ptr, ptr, i32, i32, i32, i32, i32, i32, i32, i32, [8 x i8] }
%struct.ePICContext = type { %struct.ElsDecCtx, i32, %struct.ElsUnsignedRung, i8, i8, [256 x i8], [512 x i8], [256 x i8], [256 x i8], [14 x i8], [14 x i8], i8, i32, [1024 x i32], %struct.ePICPixHash }
%struct.ElsDecCtx = type { ptr, i32, i64, i32, i32, i32, i32 }
%struct.ElsUnsignedRung = type { [11 x i8], ptr, i64, i16 }
%struct.ePICPixHash = type { [256 x ptr], [256 x i32], [256 x i32] }
%struct.JPGContext = type { %struct.BlockDSPContext, %struct.IDCTDSPContext, [64 x i8], [2 x %struct.VLC], [2 x %struct.VLC], [3 x i32], [12 x i8], [6 x [64 x i16]], ptr, [8 x i8] }
%struct.BlockDSPContext = type { ptr, ptr, [2 x ptr] }
%struct.IDCTDSPContext = type { ptr, ptr, ptr, ptr, ptr, ptr, [64 x i8], i32, i32 }
%struct.VLC = type { i32, ptr, i32, i32 }

@.str.2 = private unnamed_addr constant [24 x i8] c"Cannot initialise VLCs\0A\00", align 1

; Function Attrs: cold nounwind optsize uwtable
define internal i32 @g2m_decode_init(ptr noundef %0) #0 {
  %2 = alloca i32, align 4
  %3 = alloca ptr, align 8
  %4 = alloca ptr, align 8
  %5 = alloca i32, align 4
  %6 = alloca i32, align 4
  store ptr %0, ptr %3, align 8, !tbaa !4
  call void @llvm.lifetime.start.p0(i64 8, ptr %4) #12
  %7 = load ptr, ptr %3, align 8, !tbaa !4
  %8 = getelementptr inbounds nuw %struct.AVCodecContext, ptr %7, i32 0, i32 6
  %9 = load ptr, ptr %8, align 8, !tbaa !9
  store ptr %9, ptr %4, align 8, !tbaa !29
  call void @llvm.lifetime.start.p0(i64 4, ptr %5) #12
  %10 = load ptr, ptr %3, align 8, !tbaa !4
  %11 = load ptr, ptr %4, align 8, !tbaa !29
  %12 = getelementptr inbounds nuw %struct.G2MContext, ptr %11, i32 0, i32 1
  %13 = call i32 @jpg_init(ptr noundef %10, ptr noundef %12) #13
  store i32 %13, ptr %5, align 4, !tbaa !31
  %14 = icmp ne i32 %13, 0
  br i1 %14, label %15, label %17

15:                                               ; preds = %1
  %16 = load ptr, ptr %3, align 8, !tbaa !4
  call void (ptr, i32, ptr, ...) @av_log(ptr noundef %16, i32 noundef 16, ptr noundef @.str.2)
  store i32 -12, ptr %2, align 4
  store i32 1, ptr %6, align 4
  br label %30

17:                                               ; preds = %1
  %18 = load ptr, ptr %3, align 8, !tbaa !4
  %19 = getelementptr inbounds nuw %struct.AVCodecContext, ptr %18, i32 0, i32 23
  store i32 2, ptr %19, align 8, !tbaa !32
  %20 = load ptr, ptr %3, align 8, !tbaa !4
  %21 = getelementptr inbounds nuw %struct.AVCodecContext, ptr %20, i32 0, i32 18
  %22 = load i32, ptr %21, align 8, !tbaa !33
  %23 = load ptr, ptr %4, align 8, !tbaa !29
  %24 = getelementptr inbounds nuw %struct.G2MContext, ptr %23, i32 0, i32 7
  store i32 %22, ptr %24, align 4, !tbaa !34
  %25 = load ptr, ptr %3, align 8, !tbaa !4
  %26 = getelementptr inbounds nuw %struct.AVCodecContext, ptr %25, i32 0, i32 19
  %27 = load i32, ptr %26, align 4, !tbaa !45
  %28 = load ptr, ptr %4, align 8, !tbaa !29
  %29 = getelementptr inbounds nuw %struct.G2MContext, ptr %28, i32 0, i32 8
  store i32 %27, ptr %29, align 8, !tbaa !46
  store i32 0, ptr %2, align 4
  store i32 1, ptr %6, align 4
  br label %30

30:                                               ; preds = %17, %15
  call void @llvm.lifetime.end.p0(i64 4, ptr %5) #12
  call void @llvm.lifetime.end.p0(i64 8, ptr %4) #12
  %31 = load i32, ptr %2, align 4
  ret i32 %31
}