; Function Attrs: cold nounwind optsize uwtable
define internal range(i32 -12, 1) i32 @g2m_decode_init(ptr noundef %0) #0 {
  %2 = getelementptr inbounds nuw i8, ptr %0, i64 32
  %3 = load ptr, ptr %2, align 8, !tbaa !4
  %4 = getelementptr inbounds nuw i8, ptr %3, i64 9600
  %5 = tail call fastcc i32 @jpg_init(ptr noundef %0, ptr noundef nonnull %4) #11
  %.not = icmp eq i32 %5, 0
  br i1 %.not, label %7, label %6

6:                                                ; preds = %1
  tail call void (ptr, i32, ptr, ...) @av_log(ptr noundef nonnull %0, i32 noundef 16, ptr noundef nonnull @.str.2) #12
  br label %15

7:                                                ; preds = %1
  %8 = getelementptr inbounds nuw i8, ptr %0, i64 136
  store i32 2, ptr %8, align 8, !tbaa !27
  %9 = getelementptr inbounds nuw i8, ptr %0, i64 112
  %10 = load i32, ptr %9, align 8, !tbaa !28
  %11 = getelementptr inbounds nuw i8, ptr %3, i64 10740
  store i32 %10, ptr %11, align 4, !tbaa !29
  %12 = getelementptr inbounds nuw i8, ptr %0, i64 116
  %13 = load i32, ptr %12, align 4, !tbaa !40
  %14 = getelementptr inbounds nuw i8, ptr %3, i64 10744
  store i32 %13, ptr %14, align 8, !tbaa !41
  br label %15

15:                                               ; preds = %7, %6
  %.0 = phi i32 [ -12, %6 ], [ 0, %7 ]
  ret i32 %.0
}